target datalayout = "e-m:e-p270:32:32-p271:32:32-p272:64:64-i64:64-i128:128-f80:128-n8:16:32:64-S128"
target triple = "x86_64-pc-linux-gnu"

%class.dtTileCache = type { i32, i32, ptr, ptr, ptr, i32, i32, %struct.dtTileCacheParams, ptr, ptr, ptr, ptr, ptr, [64 x %"struct.dtTileCache::ObstacleRequest"], i32, [64 x i32], i32 }
%struct.dtTileCacheParams = type { [3 x float], float, float, i32, i32, float, float, float, float, i32, i32 }
%"struct.dtTileCache::ObstacleRequest" = type { i32, i32 }
%struct.dtCompressedTile = type { i32, ptr, ptr, i32, ptr, i32, i32, ptr }
%struct.dtTileCacheObstacle = type { %union.anon, [8 x i32], [8 x i32], i16, i8, i8, i8, i8, ptr }
%union.anon = type { %struct.dtObstacleOrientedBox }
%struct.dtObstacleOrientedBox = type { [3 x float], [3 x float], [2 x float] }

; Function Attrs: mustprogress nounwind uwtable
define linkonce_odr noundef i32 @_Z5dtMinIjET_S0_S0_(i32 noundef %0, i32 noundef %1) #2 comdat {
  %3 = alloca i32, align 4
  %4 = alloca i32, align 4
  store i32 %0, ptr %3, align 4
  store i32 %1, ptr %4, align 4
  %5 = load i32, ptr %3, align 4
  %6 = load i32, ptr %4, align 4
  %7 = icmp ult i32 %5, %6
  br i1 %7, label %8, label %10

8:                                                ; preds = %2
  %9 = load i32, ptr %3, align 4
  br label %12

10:                                               ; preds = %2
  %11 = load i32, ptr %4, align 4
  br label %12

12:                                               ; preds = %10, %8
  %13 = phi i32 [ %9, %8 ], [ %11, %10 ]
  ret i32 %13
}

; Function Attrs: mustprogress nounwind uwtable
define linkonce_odr noundef i32 @_Z7dtIlog2j(i32 noundef %0) #2 comdat {
  %2 = alloca i32, align 4
  %3 = alloca i32, align 4
  %4 = alloca i32, align 4
  store i32 %0, ptr %2, align 4
  %5 = load i32, ptr %2, align 4
  %6 = icmp ugt i32 %5, 65535
  %7 = zext i1 %6 to i32
  %8 = shl i32 %7, 4
  store i32 %8, ptr %3, align 4
  %9 = load i32, ptr %3, align 4
  %10 = load i32, ptr %2, align 4
  %11 = lshr i32 %10, %9
  store i32 %11, ptr %2, align 4
  %12 = load i32, ptr %2, align 4
  %13 = icmp ugt i32 %12, 255
  %14 = zext i1 %13 to i32
  %15 = shl i32 %14, 3
  store i32 %15, ptr %4, align 4
  %16 = load i32, ptr %4, align 4
  %17 = load i32, ptr %2, align 4
  %18 = lshr i32 %17, %16
  store i32 %18, ptr %2, align 4
  %19 = load i32, ptr %4, align 4
  %20 = load i32, ptr %3, align 4
  %21 = or i32 %20, %19
  store i32 %21, ptr %3, align 4
  %22 = load i32, ptr %2, align 4
  %23 = icmp ugt i32 %22, 15
  %24 = zext i1 %23 to i32
  %25 = shl i32 %24, 2
  store i32 %25, ptr %4, align 4
  %26 = load i32, ptr %4, align 4
  %27 = load i32, ptr %2, align 4
  %28 = lshr i32 %27, %26
  store i32 %28, ptr %2, align 4
  %29 = load i32, ptr %4, align 4
  %30 = load i32, ptr %3, align 4
  %31 = or i32 %30, %29
  store i32 %31, ptr %3, align 4
  %32 = load i32, ptr %2, align 4
  %33 = icmp ugt i32 %32, 3
  %34 = zext i1 %33 to i32
  %35 = shl i32 %34, 1
  store i32 %35, ptr %4, align 4
  %36 = load i32, ptr %4, align 4
  %37 = load i32, ptr %2, align 4
  %38 = lshr i32 %37, %36
  store i32 %38, ptr %2, align 4
  %39 = load i32, ptr %4, align 4
  %40 = load i32, ptr %3, align 4
  %41 = or i32 %40, %39
  store i32 %41, ptr %3, align 4
  %42 = load i32, ptr %2, align 4
  %43 = lshr i32 %42, 1
  %44 = load i32, ptr %3, align 4
  %45 = or i32 %44, %43
  store i32 %45, ptr %3, align 4
  %46 = load i32, ptr %3, align 4
  ret i32 %46
}

; Function Attrs: mustprogress nounwind uwtable
define linkonce_odr noundef i32 @_Z10dtNextPow2j(i32 noundef %0) #2 comdat {
  %2 = alloca i32, align 4
  store i32 %0, ptr %2, align 4
  %3 = load i32, ptr %2, align 4
  %4 = add i32 %3, -1
  store i32 %4, ptr %2, align 4
  %5 = load i32, ptr %2, align 4
  %6 = lshr i32 %5, 1
  %7 = load i32, ptr %2, align 4
  %8 = or i32 %7, %6
  store i32 %8, ptr %2, align 4
  %9 = load i32, ptr %2, align 4
  %10 = lshr i32 %9, 2
  %11 = load i32, ptr %2, align 4
  %12 = or i32 %11, %10
  store i32 %12, ptr %2, align 4
  %13 = load i32, ptr %2, align 4
  %14 = lshr i32 %13, 4
  %15 = load i32, ptr %2, align 4
  %16 = or i32 %15, %14
  store i32 %16, ptr %2, align 4
  %17 = load i32, ptr %2, align 4
  %18 = lshr i32 %17, 8
  %19 = load i32, ptr %2, align 4
  %20 = or i32 %19, %18
  store i32 %20, ptr %2, align 4
  %21 = load i32, ptr %2, align 4
  %22 = lshr i32 %21, 16
  %23 = load i32, ptr %2, align 4
  %24 = or i32 %23, %22
  store i32 %24, ptr %2, align 4
  %25 = load i32, ptr %2, align 4
  %26 = add i32 %25, 1
  store i32 %26, ptr %2, align 4
  %27 = load i32, ptr %2, align 4
  ret i32 %27
}

; Function Attrs: mustprogress uwtable
define noundef i32 @_ZN11dtTileCache4initEPK17dtTileCacheParamsP16dtTileCacheAllocP21dtTileCacheCompressorP22dtTileCacheMeshProcess(ptr noundef nonnull align 8 dereferenceable(912) %0, ptr noundef %1, ptr noundef %2, ptr noundef %3, ptr noundef %4) #0 align 2 {
  %6 = alloca i32, align 4
  %7 = alloca ptr, align 8
  %8 = alloca ptr, align 8
  %9 = alloca ptr, align 8
  %10 = alloca ptr, align 8
  %11 = alloca ptr, align 8
  %12 = alloca i32, align 4
  %13 = alloca i32, align 4
  store ptr %0, ptr %7, align 8
  store ptr %1, ptr %8, align 8
  store ptr %2, ptr %9, align 8
  store ptr %3, ptr %10, align 8
  store ptr %4, ptr %11, align 8
  %14 = load ptr, ptr %7, align 8
  %15 = load ptr, ptr %9, align 8
  %16 = getelementptr inbounds %class.dtTileCache, ptr %14, i32 0, i32 8
  store ptr %15, ptr %16, align 8
  %17 = load ptr, ptr %10, align 8
  %18 = getelementptr inbounds %class.dtTileCache, ptr %14, i32 0, i32 9
  store ptr %17, ptr %18, align 8
  %19 = load ptr, ptr %11, align 8
  %20 = getelementptr inbounds %class.dtTileCache, ptr %14, i32 0, i32 10
  store ptr %19, ptr %20, align 8
  %21 = getelementptr inbounds %class.dtTileCache, ptr %14, i32 0, i32 14
  store i32 0, ptr %21, align 8
  %22 = getelementptr inbounds %class.dtTileCache, ptr %14, i32 0, i32 7
  %23 = load ptr, ptr %8, align 8
  call void @llvm.memcpy.p0.p0.i64(ptr align 8 %22, ptr align 4 %23, i64 52, i1 false)
  %24 = getelementptr inbounds %class.dtTileCache, ptr %14, i32 0, i32 7
  %25 = getelementptr inbounds %struct.dtTileCacheParams, ptr %24, i32 0, i32 10
  %26 = load i32, ptr %25, align 8
  %27 = sext i32 %26 to i64
  %28 = mul i64 112, %27
  %29 = call noundef ptr @_Z7dtAllocm11dtAllocHint(i64 noundef %28, i32 noundef 0)
  %30 = getelementptr inbounds %class.dtTileCache, ptr %14, i32 0, i32 11
  store ptr %29, ptr %30, align 8
  %31 = getelementptr inbounds %class.dtTileCache, ptr %14, i32 0, i32 11
  %32 = load ptr, ptr %31, align 8
  %33 = icmp ne ptr %32, null
  br i1 %33, label %35, label %34

34:                                               ; preds = %5
  store i32 -2147483644, ptr %6, align 4
  br label %177

35:                                               ; preds = %5
  %36 = getelementptr inbounds %class.dtTileCache, ptr %14, i32 0, i32 11
  %37 = load ptr, ptr %36, align 8
  %38 = getelementptr inbounds %class.dtTileCache, ptr %14, i32 0, i32 7
  %39 = getelementptr inbounds %struct.dtTileCacheParams, ptr %38, i32 0, i32 10
  %40 = load i32, ptr %39, align 8
  %41 = sext i32 %40 to i64
  %42 = mul i64 112, %41
  call void @llvm.memset.p0.i64(ptr align 8 %37, i8 0, i64 %42, i1 false)
  %43 = getelementptr inbounds %class.dtTileCache, ptr %14, i32 0, i32 12
  store ptr null, ptr %43, align 8
  %44 = getelementptr inbounds %class.dtTileCache, ptr %14, i32 0, i32 7
  %45 = getelementptr inbounds %struct.dtTileCacheParams, ptr %44, i32 0, i32 10
  %46 = load i32, ptr %45, align 8
  %47 = sub nsw i32 %46, 1
  store i32 %47, ptr %12, align 4
  br label %48

48:                                               ; preds = %72, %35
  %49 = load i32, ptr %12, align 4
  %50 = icmp sge i32 %49, 0
  br i1 %50, label %51, label %75

51:                                               ; preds = %48
  %52 = getelementptr inbounds %class.dtTileCache, ptr %14, i32 0, i32 11
  %53 = load ptr, ptr %52, align 8
  %54 = load i32, ptr %12, align 4
  %55 = sext i32 %54 to i64
  %56 = getelementptr inbounds %struct.dtTileCacheObstacle, ptr %53, i64 %55
  %57 = getelementptr inbounds %struct.dtTileCacheObstacle, ptr %56, i32 0, i32 3
  store i16 1, ptr %57, align 8
  %58 = getelementptr inbounds %class.dtTileCache, ptr %14, i32 0, i32 12
  %59 = load ptr, ptr %58, align 8
  %60 = getelementptr inbounds %class.dtTileCache, ptr %14, i32 0, i32 11
  %61 = load ptr, ptr %60, align 8
  %62 = load i32, ptr %12, align 4
  %63 = sext i32 %62 to i64
  %64 = getelementptr inbounds %struct.dtTileCacheObstacle, ptr %61, i64 %63
  %65 = getelementptr inbounds %struct.dtTileCacheObstacle, ptr %64, i32 0, i32 8
  store ptr %59, ptr %65, align 8
  %66 = getelementptr inbounds %class.dtTileCache, ptr %14, i32 0, i32 11
  %67 = load ptr, ptr %66, align 8
  %68 = load i32, ptr %12, align 4
  %69 = sext i32 %68 to i64
  %70 = getelementptr inbounds %struct.dtTileCacheObstacle, ptr %67, i64 %69
  %71 = getelementptr inbounds %class.dtTileCache, ptr %14, i32 0, i32 12
  store ptr %70, ptr %71, align 8
  br label %72

72:                                               ; preds = %51
  %73 = load i32, ptr %12, align 4
  %74 = add nsw i32 %73, -1
  store i32 %74, ptr %12, align 4
  br label %48, !llvm.loop !6

75:                                               ; preds = %48
  %76 = getelementptr inbounds %class.dtTileCache, ptr %14, i32 0, i32 7
  %77 = getelementptr inbounds %struct.dtTileCacheParams, ptr %76, i32 0, i32 9
  %78 = load i32, ptr %77, align 4
  %79 = sdiv i32 %78, 4
  %80 = call noundef i32 @_Z10dtNextPow2j(i32 noundef %79)
  %81 = getelementptr inbounds %class.dtTileCache, ptr %14, i32 0, i32 0
  store i32 %80, ptr %81, align 8
  %82 = getelementptr inbounds %class.dtTileCache, ptr %14, i32 0, i32 0
  %83 = load i32, ptr %82, align 8
  %84 = icmp ne i32 %83, 0
  br i1 %84, label %87, label %85

85:                                               ; preds = %75
  %86 = getelementptr inbounds %class.dtTileCache, ptr %14, i32 0, i32 0
  store i32 1, ptr %86, align 8
  br label %87

87:                                               ; preds = %85, %75
  %88 = getelementptr inbounds %class.dtTileCache, ptr %14, i32 0, i32 0
  %89 = load i32, ptr %88, align 8
  %90 = sub nsw i32 %89, 1
  %91 = getelementptr inbounds %class.dtTileCache, ptr %14, i32 0, i32 1
  store i32 %90, ptr %91, align 4
  %92 = getelementptr inbounds %class.dtTileCache, ptr %14, i32 0, i32 7
  %93 = getelementptr inbounds %struct.dtTileCacheParams, ptr %92, i32 0, i32 9
  %94 = load i32, ptr %93, align 4
  %95 = sext i32 %94 to i64
  %96 = mul i64 56, %95
  %97 = call noundef ptr @_Z7dtAllocm11dtAllocHint(i64 noundef %96, i32 noundef 0)
  %98 = getelementptr inbounds %class.dtTileCache, ptr %14, i32 0, i32 4
  store ptr %97, ptr %98, align 8
  %99 = getelementptr inbounds %class.dtTileCache, ptr %14, i32 0, i32 4
  %100 = load ptr, ptr %99, align 8
  %101 = icmp ne ptr %100, null
  br i1 %101, label %103, label %102

102:                                              ; preds = %87
  store i32 -2147483644, ptr %6, align 4
  br label %177

103:                                              ; preds = %87
  %104 = getelementptr inbounds %class.dtTileCache, ptr %14, i32 0, i32 0
  %105 = load i32, ptr %104, align 8
  %106 = sext i32 %105 to i64
  %107 = mul i64 8, %106
  %108 = call noundef ptr @_Z7dtAllocm11dtAllocHint(i64 noundef %107, i32 noundef 0)
  %109 = getelementptr inbounds %class.dtTileCache, ptr %14, i32 0, i32 2
  store ptr %108, ptr %109, align 8
  %110 = getelementptr inbounds %class.dtTileCache, ptr %14, i32 0, i32 2
  %111 = load ptr, ptr %110, align 8
  %112 = icmp ne ptr %111, null
  br i1 %112, label %114, label %113

113:                                              ; preds = %103
  store i32 -2147483644, ptr %6, align 4
  br label %177

114:                                              ; preds = %103
  %115 = getelementptr inbounds %class.dtTileCache, ptr %14, i32 0, i32 4
  %116 = load ptr, ptr %115, align 8
  %117 = getelementptr inbounds %class.dtTileCache, ptr %14, i32 0, i32 7
  %118 = getelementptr inbounds %struct.dtTileCacheParams, ptr %117, i32 0, i32 9
  %119 = load i32, ptr %118, align 4
  %120 = sext i32 %119 to i64
  %121 = mul i64 56, %120
  call void @llvm.memset.p0.i64(ptr align 8 %116, i8 0, i64 %121, i1 false)
  %122 = getelementptr inbounds %class.dtTileCache, ptr %14, i32 0, i32 2
  %123 = load ptr, ptr %122, align 8
  %124 = getelementptr inbounds %class.dtTileCache, ptr %14, i32 0, i32 0
  %125 = load i32, ptr %124, align 8
  %126 = sext i32 %125 to i64
  %127 = mul i64 8, %126
  call void @llvm.memset.p0.i64(ptr align 8 %123, i8 0, i64 %127, i1 false)
  %128 = getelementptr inbounds %class.dtTileCache, ptr %14, i32 0, i32 3
  store ptr null, ptr %128, align 8
  %129 = getelementptr inbounds %class.dtTileCache, ptr %14, i32 0, i32 7
  %130 = getelementptr inbounds %struct.dtTileCacheParams, ptr %129, i32 0, i32 9
  %131 = load i32, ptr %130, align 4
  %132 = sub nsw i32 %131, 1
  store i32 %132, ptr %13, align 4
  br label %133

133:                                              ; preds = %157, %114
  %134 = load i32, ptr %13, align 4
  %135 = icmp sge i32 %134, 0
  br i1 %135, label %136, label %160

136:                                              ; preds = %133
  %137 = getelementptr inbounds %class.dtTileCache, ptr %14, i32 0, i32 4
  %138 = load ptr, ptr %137, align 8
  %139 = load i32, ptr %13, align 4
  %140 = sext i32 %139 to i64
  %141 = getelementptr inbounds %struct.dtCompressedTile, ptr %138, i64 %140
  %142 = getelementptr inbounds %struct.dtCompressedTile, ptr %141, i32 0, i32 0
  store i32 1, ptr %142, align 8
  %143 = getelementptr inbounds %class.dtTileCache, ptr %14, i32 0, i32 3
  %144 = load ptr, ptr %143, align 8
  %145 = getelementptr inbounds %class.dtTileCache, ptr %14, i32 0, i32 4
  %146 = load ptr, ptr %145, align 8
  %147 = load i32, ptr %13, align 4
  %148 = sext i32 %147 to i64
  %149 = getelementptr inbounds %struct.dtCompressedTile, ptr %146, i64 %148
  %150 = getelementptr inbounds %struct.dtCompressedTile, ptr %149, i32 0, i32 7
  store ptr %144, ptr %150, align 8
  %151 = getelementptr inbounds %class.dtTileCache, ptr %14, i32 0, i32 4
  %152 = load ptr, ptr %151, align 8
  %153 = load i32, ptr %13, align 4
  %154 = sext i32 %153 to i64
  %155 = getelementptr inbounds %struct.dtCompressedTile, ptr %152, i64 %154
  %156 = getelementptr inbounds %class.dtTileCache, ptr %14, i32 0, i32 3
  store ptr %155, ptr %156, align 8
  br label %157

157:                                              ; preds = %136
  %158 = load i32, ptr %13, align 4
  %159 = add nsw i32 %158, -1
  store i32 %159, ptr %13, align 4
  br label %133, !llvm.loop !7

160:                                              ; preds = %133
  %161 = getelementptr inbounds %class.dtTileCache, ptr %14, i32 0, i32 7
  %162 = getelementptr inbounds %struct.dtTileCacheParams, ptr %161, i32 0, i32 9
  %163 = load i32, ptr %162, align 4
  %164 = call noundef i32 @_Z10dtNextPow2j(i32 noundef %163)
  %165 = call noundef i32 @_Z7dtIlog2j(i32 noundef %164)
  %166 = getelementptr inbounds %class.dtTileCache, ptr %14, i32 0, i32 6
  store i32 %165, ptr %166, align 4
  %167 = getelementptr inbounds %class.dtTileCache, ptr %14, i32 0, i32 6
  %168 = load i32, ptr %167, align 4
  %169 = sub i32 32, %168
  %170 = call noundef i32 @_Z5dtMinIjET_S0_S0_(i32 noundef 31, i32 noundef %169)
  %171 = getelementptr inbounds %class.dtTileCache, ptr %14, i32 0, i32 5
  store i32 %170, ptr %171, align 8
  %172 = getelementptr inbounds %class.dtTileCache, ptr %14, i32 0, i32 5
  %173 = load i32, ptr %172, align 8
  %174 = icmp ult i32 %173, 10
  br i1 %174, label %175, label %176

175:                                              ; preds = %160
  store i32 -2147483640, ptr %6, align 4
  br label %177

176:                                              ; preds = %160
  store i32 1073741824, ptr %6, align 4
  br label %177

177:                                              ; preds = %176, %175, %113, %102, %34
  %178 = load i32, ptr %6, align 4
  ret i32 %178
}