; Function Attrs: mustprogress uwtable
define noundef range(i32 1073741824, -2147483639) i32 @_ZN11dtTileCache4initEPK17dtTileCacheParamsP16dtTileCacheAllocP21dtTileCacheCompressorP22dtTileCacheMeshProcess(ptr noundef nonnull align 8 captures(none) dereferenceable(912) initializes((40, 92), (96, 128), (648, 652)) %0, ptr noundef readonly captures(none) %1, ptr noundef %2, ptr noundef %3, ptr noundef %4) local_unnamed_addr #0 align 2 {
  %6 = getelementptr inbounds nuw i8, ptr %0, i64 96
  store ptr %2, ptr %6, align 8
  %7 = getelementptr inbounds nuw i8, ptr %0, i64 104
  store ptr %3, ptr %7, align 8
  %8 = getelementptr inbounds nuw i8, ptr %0, i64 112
  store ptr %4, ptr %8, align 8
  %9 = getelementptr inbounds nuw i8, ptr %0, i64 648
  store i32 0, ptr %9, align 8
  %10 = getelementptr inbounds nuw i8, ptr %0, i64 40
  tail call void @llvm.memcpy.p0.p0.i64(ptr noundef nonnull align 8 dereferenceable(52) %10, ptr noundef nonnull align 4 dereferenceable(52) %1, i64 52, i1 false)
  %11 = getelementptr inbounds nuw i8, ptr %0, i64 88
  %12 = load i32, ptr %11, align 8
  %13 = sext i32 %12 to i64
  %14 = mul nsw i64 %13, 112
  %15 = tail call noundef ptr @_Z7dtAllocm11dtAllocHint(i64 noundef %14, i32 noundef 0)
  %16 = getelementptr inbounds nuw i8, ptr %0, i64 120
  store ptr %15, ptr %16, align 8
  %.not = icmp eq ptr %15, null
  br i1 %.not, label %116, label %17

17:                                               ; preds = %5
  %18 = load i32, ptr %11, align 8
  %19 = sext i32 %18 to i64
  %20 = mul nsw i64 %19, 112
  tail call void @llvm.memset.p0.i64(ptr nonnull align 8 %15, i8 0, i64 %20, i1 false)
  %21 = getelementptr inbounds nuw i8, ptr %0, i64 128
  store ptr null, ptr %21, align 8
  %22 = load i32, ptr %11, align 8
  %23 = icmp sgt i32 %22, 0
  br i1 %23, label %.lr.ph.preheader, label %._crit_edge

.lr.ph.preheader:                                 ; preds = %17
  %24 = zext nneg i32 %22 to i64
  %.pre = load ptr, ptr %16, align 8
  br label %.lr.ph

.lr.ph:                                           ; preds = %.lr.ph.preheader, %.lr.ph
  %25 = phi ptr [ %.pre, %.lr.ph.preheader ], [ %30, %.lr.ph ]
  %indvars.iv = phi i64 [ %24, %.lr.ph.preheader ], [ %indvars.iv.next, %.lr.ph ]
  %indvars.iv.next = add nsw i64 %indvars.iv, -1
  %26 = getelementptr inbounds nuw %struct.dtTileCacheObstacle, ptr %25, i64 %indvars.iv.next, i32 3
  store i16 1, ptr %26, align 8
  %27 = load ptr, ptr %21, align 8
  %28 = load ptr, ptr %16, align 8
  %29 = getelementptr inbounds nuw %struct.dtTileCacheObstacle, ptr %28, i64 %indvars.iv.next, i32 8
  store ptr %27, ptr %29, align 8
  %30 = load ptr, ptr %16, align 8
  %31 = getelementptr inbounds nuw %struct.dtTileCacheObstacle, ptr %30, i64 %indvars.iv.next
  store ptr %31, ptr %21, align 8
  %32 = icmp samesign ugt i64 %indvars.iv, 1
  br i1 %32, label %.lr.ph, label %._crit_edge, !llvm.loop !6

._crit_edge:                                      ; preds = %.lr.ph, %17
  %33 = getelementptr inbounds nuw i8, ptr %0, i64 84
  %34 = load i32, ptr %33, align 4
  %35 = sdiv i32 %34, 4
  %36 = add nsw i32 %35, -1
  %37 = lshr i32 %36, 1
  %38 = or i32 %37, %36
  %39 = lshr i32 %38, 2
  %40 = or i32 %39, %38
  %41 = lshr i32 %40, 4
  %42 = or i32 %41, %40
  %43 = lshr i32 %42, 8
  %44 = or i32 %43, %42
  %45 = lshr i32 %44, 16
  %46 = or i32 %45, %44
  %47 = add i32 %46, 1
  %spec.select = tail call i32 @llvm.umax.i32(i32 %47, i32 1)
  store i32 %spec.select, ptr %0, align 8
  %48 = add nsw i32 %spec.select, -1
  %49 = getelementptr inbounds nuw i8, ptr %0, i64 4
  store i32 %48, ptr %49, align 4
  %50 = sext i32 %34 to i64
  %51 = mul nsw i64 %50, 56
  %52 = tail call noundef ptr @_Z7dtAllocm11dtAllocHint(i64 noundef %51, i32 noundef 0)
  %53 = getelementptr inbounds nuw i8, ptr %0, i64 24
  store ptr %52, ptr %53, align 8
  %.not19 = icmp eq ptr %52, null
  br i1 %.not19, label %116, label %54

54:                                               ; preds = %._crit_edge
  %55 = load i32, ptr %0, align 8
  %56 = sext i32 %55 to i64
  %57 = shl nsw i64 %56, 3
  %58 = tail call noundef ptr @_Z7dtAllocm11dtAllocHint(i64 noundef %57, i32 noundef 0)
  %59 = getelementptr inbounds nuw i8, ptr %0, i64 8
  store ptr %58, ptr %59, align 8
  %.not20 = icmp eq ptr %58, null
  br i1 %.not20, label %116, label %60

60:                                               ; preds = %54
  %61 = load ptr, ptr %53, align 8
  %62 = load i32, ptr %33, align 4
  %63 = sext i32 %62 to i64
  %64 = mul nsw i64 %63, 56
  tail call void @llvm.memset.p0.i64(ptr align 8 %61, i8 0, i64 %64, i1 false)
  %65 = load ptr, ptr %59, align 8
  %66 = load i32, ptr %0, align 8
  %67 = sext i32 %66 to i64
  %68 = shl nsw i64 %67, 3
  tail call void @llvm.memset.p0.i64(ptr align 8 %65, i8 0, i64 %68, i1 false)
  %69 = getelementptr inbounds nuw i8, ptr %0, i64 16
  store ptr null, ptr %69, align 8
  %70 = load i32, ptr %33, align 4
  %71 = icmp sgt i32 %70, 0
  br i1 %71, label %.lr.ph24.preheader, label %._crit_edge25

.lr.ph24.preheader:                               ; preds = %60
  %72 = zext nneg i32 %70 to i64
  %.pre30 = load ptr, ptr %53, align 8
  br label %.lr.ph24

.lr.ph24:                                         ; preds = %.lr.ph24.preheader, %.lr.ph24
  %73 = phi ptr [ %.pre30, %.lr.ph24.preheader ], [ %78, %.lr.ph24 ]
  %indvars.iv27 = phi i64 [ %72, %.lr.ph24.preheader ], [ %indvars.iv.next28, %.lr.ph24 ]
  %indvars.iv.next28 = add nsw i64 %indvars.iv27, -1
  %74 = getelementptr inbounds nuw %struct.dtCompressedTile, ptr %73, i64 %indvars.iv.next28
  store i32 1, ptr %74, align 8
  %75 = load ptr, ptr %69, align 8
  %76 = load ptr, ptr %53, align 8
  %77 = getelementptr inbounds nuw %struct.dtCompressedTile, ptr %76, i64 %indvars.iv.next28, i32 7
  store ptr %75, ptr %77, align 8
  %78 = load ptr, ptr %53, align 8
  %79 = getelementptr inbounds nuw %struct.dtCompressedTile, ptr %78, i64 %indvars.iv.next28
  store ptr %79, ptr %69, align 8
  %80 = icmp samesign ugt i64 %indvars.iv27, 1
  br i1 %80, label %.lr.ph24, label %._crit_edge25.loopexit, !llvm.loop !7

._crit_edge25.loopexit:                           ; preds = %.lr.ph24
  %.pre31 = load i32, ptr %33, align 4
  br label %._crit_edge25

._crit_edge25:                                    ; preds = %._crit_edge25.loopexit, %60
  %81 = phi i32 [ %.pre31, %._crit_edge25.loopexit ], [ %70, %60 ]
  %82 = add i32 %81, -1
  %83 = lshr i32 %82, 1
  %84 = or i32 %83, %82
  %85 = lshr i32 %84, 2
  %86 = or i32 %85, %84
  %87 = lshr i32 %86, 4
  %88 = or i32 %87, %86
  %89 = lshr i32 %88, 8
  %90 = or i32 %89, %88
  %91 = lshr i32 %90, 16
  %92 = or i32 %91, %90
  %93 = add i32 %92, 1
  %94 = icmp ugt i32 %93, 65535
  %95 = select i1 %94, i32 16, i32 0
  %96 = lshr i32 %93, %95
  %97 = icmp samesign ugt i32 %96, 255
  %98 = select i1 %97, i32 8, i32 0
  %99 = lshr i32 %96, %98
  %100 = icmp samesign ugt i32 %99, 15
  %101 = select i1 %100, i32 4, i32 0
  %102 = lshr i32 %99, %101
  %103 = icmp samesign ugt i32 %102, 3
  %104 = select i1 %103, i32 2, i32 0
  %105 = lshr i32 %102, %104
  %106 = lshr i32 %105, 1
  %107 = or i32 %95, %106
  %108 = or i32 %107, %98
  %109 = or i32 %108, %101
  %110 = or i32 %109, %104
  %111 = getelementptr inbounds nuw i8, ptr %0, i64 36
  store i32 %110, ptr %111, align 4
  %112 = sub nsw i32 32, %110
  %113 = tail call noundef i32 @llvm.umin.i32(i32 %112, i32 31)
  %114 = getelementptr inbounds nuw i8, ptr %0, i64 32
  store i32 %113, ptr %114, align 8
  %115 = icmp ult i32 %112, 10
  %. = select i1 %115, i32 -2147483640, i32 1073741824
  br label %116

116:                                              ; preds = %._crit_edge25, %54, %._crit_edge, %5
  %.016 = phi i32 [ -2147483644, %5 ], [ -2147483644, %._crit_edge ], [ -2147483644, %54 ], [ %., %._crit_edge25 ]
  ret i32 %.016
}